target datalayout = "e-m:e-p270:32:32-p271:32:32-p272:64:64-i64:64-i128:128-f80:128-n8:16:32:64-S128"
target triple = "x86_64-pc-linux-gnu"

%struct.slurmdb_tres_rec_t = type { i64, i32, i64, i32, ptr, ptr }

@.str.2 = private unnamed_addr constant [15 x i8] c"slurmdb_defs.c\00", align 1
@.str.179 = private unnamed_addr constant [19 x i8] c"%s: no value found\00", align 1
@__func__.slurmdb_find_tres_in_string = private unnamed_addr constant [28 x i8] c"slurmdb_find_tres_in_string\00", align 1

; Function Attrs: inlinehint nounwind willreturn memory(read) uwtable
define available_externally i32 @atoi(ptr noundef nonnull %0) #8 {
  %2 = alloca ptr, align 8
  store ptr %0, ptr %2, align 8
  %3 = load ptr, ptr %2, align 8
  %4 = call i64 @strtol(ptr noundef %3, ptr noundef null, i32 noundef 10) #10
  %5 = trunc i64 %4 to i32
  ret i32 %5
}

; Function Attrs: nounwind uwtable
define dso_local ptr @slurmdb_find_tres_in_string(ptr noundef %0, i32 noundef %1) #0 {
  %3 = alloca ptr, align 8
  %4 = alloca ptr, align 8
  %5 = alloca i32, align 4
  %6 = alloca ptr, align 8
  %7 = alloca ptr, align 8
  %8 = alloca i32, align 4
  store ptr %0, ptr %4, align 8
  store i32 %1, ptr %5, align 4
  call void @llvm.lifetime.start.p0(i64 8, ptr %6) #10
  store ptr null, ptr %6, align 8
  call void @llvm.lifetime.start.p0(i64 8, ptr %7) #10
  %9 = load ptr, ptr %4, align 8
  store ptr %9, ptr %7, align 8
  %10 = load ptr, ptr %7, align 8
  %11 = icmp ne ptr %10, null
  br i1 %11, label %12, label %17

12:                                               ; preds = %2
  %13 = load ptr, ptr %7, align 8
  %14 = getelementptr inbounds i8, ptr %13, i64 0
  %15 = load i8, ptr %14, align 1
  %16 = icmp ne i8 %15, 0
  br i1 %16, label %19, label %17

17:                                               ; preds = %12, %2
  %18 = load ptr, ptr %6, align 8
  store ptr %18, ptr %3, align 8
  store i32 1, ptr %8, align 4
  br label %55

19:                                               ; preds = %12
  br label %20

20:                                               ; preds = %50, %19
  %21 = load ptr, ptr %7, align 8
  %22 = icmp ne ptr %21, null
  br i1 %22, label %23, label %53

23:                                               ; preds = %20
  %24 = load i32, ptr %5, align 4
  %25 = load ptr, ptr %7, align 8
  %26 = call i32 @atoi(ptr noundef %25) #11
  %27 = icmp eq i32 %24, %26
  br i1 %27, label %28, label %45

28:                                               ; preds = %23
  %29 = load ptr, ptr %7, align 8
  %30 = call ptr @strchr(ptr noundef %29, i32 noundef 61) #11
  store ptr %30, ptr %7, align 8
  %31 = icmp ne ptr %30, null
  br i1 %31, label %34, label %32

32:                                               ; preds = %28
  %33 = call i32 (ptr, ...) @error(ptr noundef @.str.179, ptr noundef @__func__.slurmdb_find_tres_in_string)
  br label %53

34:                                               ; preds = %28
  %35 = call ptr @slurm_xcalloc(i64 noundef 1, i64 noundef 48, i1 noundef zeroext true, i1 noundef zeroext false, ptr noundef @.str.2, i32 noundef 4282, ptr noundef @__func__.slurmdb_find_tres_in_string)
  store ptr %35, ptr %6, align 8
  %36 = load i32, ptr %5, align 4
  %37 = load ptr, ptr %6, align 8
  %38 = getelementptr inbounds nuw %struct.slurmdb_tres_rec_t, ptr %37, i32 0, i32 3
  store i32 %36, ptr %38, align 8
  %39 = load ptr, ptr %7, align 8
  %40 = getelementptr inbounds nuw i8, ptr %39, i32 1
  store ptr %40, ptr %7, align 8
  %41 = call i64 @strtoull(ptr noundef %40, ptr noundef null, i32 noundef 10) #10
  %42 = load ptr, ptr %6, align 8
  %43 = getelementptr inbounds nuw %struct.slurmdb_tres_rec_t, ptr %42, i32 0, i32 2
  store i64 %41, ptr %43, align 8
  %44 = load ptr, ptr %6, align 8
  store ptr %44, ptr %3, align 8
  store i32 1, ptr %8, align 4
  br label %55

45:                                               ; preds = %23
  %46 = load ptr, ptr %7, align 8
  %47 = call ptr @strchr(ptr noundef %46, i32 noundef 44) #11
  store ptr %47, ptr %7, align 8
  %48 = icmp ne ptr %47, null
  br i1 %48, label %50, label %49

49:                                               ; preds = %45
  br label %53

50:                                               ; preds = %45
  %51 = load ptr, ptr %7, align 8
  %52 = getelementptr inbounds nuw i8, ptr %51, i32 1
  store ptr %52, ptr %7, align 8
  br label %20, !llvm.loop !59

53:                                               ; preds = %49, %32, %20
  %54 = load ptr, ptr %6, align 8
  store ptr %54, ptr %3, align 8
  store i32 1, ptr %8, align 4
  br label %55

55:                                               ; preds = %53, %34, %17
  call void @llvm.lifetime.end.p0(i64 8, ptr %7) #10
  call void @llvm.lifetime.end.p0(i64 8, ptr %6) #10
  %56 = load ptr, ptr %3, align 8
  ret ptr %56
}