; Function Attrs: nounwind uwtable
define dso_local ptr @slurmdb_find_tres_in_string(ptr noundef readonly %0, i32 noundef %1) local_unnamed_addr #0 {
  %.not = icmp eq ptr %0, null
  br i1 %.not, label %.loopexit, label %3

3:                                                ; preds = %2
  %4 = load i8, ptr %0, align 1
  %.not21 = icmp eq i8 %4, 0
  br i1 %.not21, label %.loopexit, label %.preheader

.preheader:                                       ; preds = %3
  %5 = tail call i64 @strtol(ptr noundef nonnull captures(none) %0, ptr noundef null, i32 noundef 10) #19
  %6 = trunc i64 %5 to i32
  %7 = icmp eq i32 %1, %6
  br i1 %7, label %._crit_edge, label %.lr.ph

8:                                                ; preds = %.lr.ph
  %9 = getelementptr inbounds nuw i8, ptr %22, i64 1
  %10 = tail call i64 @strtol(ptr noundef nonnull captures(none) %9, ptr noundef null, i32 noundef 10) #19
  %11 = trunc i64 %10 to i32
  %12 = icmp eq i32 %1, %11
  br i1 %12, label %._crit_edge, label %.lr.ph, !llvm.loop !59

._crit_edge:                                      ; preds = %8, %.preheader
  %.0.lcssa = phi ptr [ %0, %.preheader ], [ %9, %8 ]
  %13 = tail call ptr @strchr(ptr noundef nonnull dereferenceable(1) %.0.lcssa, i32 noundef 61) #20
  %.not23 = icmp eq ptr %13, null
  br i1 %.not23, label %14, label %16

14:                                               ; preds = %._crit_edge
  %15 = tail call i32 (ptr, ...) @error(ptr noundef nonnull @.str.179, ptr noundef nonnull @__func__.slurmdb_find_tres_in_string) #19
  br label %.loopexit

16:                                               ; preds = %._crit_edge
  %17 = tail call ptr @slurm_xcalloc(i64 noundef 1, i64 noundef 48, i1 noundef zeroext true, i1 noundef zeroext false, ptr noundef nonnull @.str.2, i32 noundef 4282, ptr noundef nonnull @__func__.slurmdb_find_tres_in_string) #19
  %18 = getelementptr inbounds nuw i8, ptr %17, i64 24
  store i32 %1, ptr %18, align 8
  %19 = getelementptr inbounds nuw i8, ptr %13, i64 1
  %20 = tail call i64 @strtoull(ptr noundef nonnull captures(none) %19, ptr noundef null, i32 noundef 10) #19
  %21 = getelementptr inbounds nuw i8, ptr %17, i64 16
  store i64 %20, ptr %21, align 8
  br label %.loopexit

.lr.ph:                                           ; preds = %.preheader, %8
  %.025 = phi ptr [ %9, %8 ], [ %0, %.preheader ]
  %22 = tail call ptr @strchr(ptr noundef nonnull dereferenceable(1) %.025, i32 noundef 44) #20
  %.not22 = icmp eq ptr %22, null
  br i1 %.not22, label %.loopexit, label %8

.loopexit:                                        ; preds = %.lr.ph, %14, %2, %3, %16
  %.016 = phi ptr [ %17, %16 ], [ null, %3 ], [ null, %2 ], [ null, %14 ], [ null, %.lr.ph ]
  ret ptr %.016
}